#include <math.h>
#include <stdio.h>
#include <stdlib.h>
#include <string.h>

int main(){
	int a[1000],n,k,i,j;
	scanf("%d %d",&n,&k);
	for(i=0;i<=n-1;i++)
		scanf("%d",&a[i]);
	for(i=0;i<n-1;i++){
		for(j=1+i;j<=n-1;j++){
				if(a[i]+a[j]==k){
					printf("yes");
					return 0;}
		if(i==n-2&&j==n-1){
		printf("no");
		return 0;}}}

	}
